target datalayout = "e-m:e-p270:32:32-p271:32:32-p272:64:64-i64:64-i128:128-f80:128-n8:16:32:64-S128"
target triple = "x86_64-unknown-linux-gnu"

@.str.1 = private unnamed_addr constant [31 x i8] c"../qemu/block/qcow2-refcount.c\00", align 1
@.str.44 = private unnamed_addr constant [14 x i8] c"!(value >> 1)\00", align 1
@__PRETTY_FUNCTION__.set_refcount_ro0 = private unnamed_addr constant [50 x i8] c"void set_refcount_ro0(void *, uint64_t, uint64_t)\00", align 1

; Function Attrs: nounwind sspstrong uwtable
define internal void @set_refcount_ro0(ptr noundef %refcount_array, i64 noundef %index, i64 noundef %value) #0 {
entry:
  %refcount_array.addr = alloca ptr, align 8
  %index.addr = alloca i64, align 8
  %value.addr = alloca i64, align 8
  store ptr %refcount_array, ptr %refcount_array.addr, align 8
  store i64 %index, ptr %index.addr, align 8
  store i64 %value, ptr %value.addr, align 8
  %0 = load i64, ptr %value.addr, align 8
  %shr = lshr i64 %0, 1
  %tobool = icmp ne i64 %shr, 0
  br i1 %tobool, label %if.else, label %if.then

if.then:                                          ; preds = %entry
  br label %if.end

if.else:                                          ; preds = %entry
  call void @__assert_fail(ptr noundef @.str.44, ptr noundef @.str.1, i32 noundef 151, ptr noundef @__PRETTY_FUNCTION__.set_refcount_ro0) #10
  unreachable

if.end:                                           ; preds = %if.then
  %1 = load i64, ptr %index.addr, align 8
  %rem = urem i64 %1, 8
  %sh_prom = trunc i64 %rem to i32
  %shl = shl i32 1, %sh_prom
  %not = xor i32 %shl, -1
  %2 = load ptr, ptr %refcount_array.addr, align 8
  %3 = load i64, ptr %index.addr, align 8
  %div = udiv i64 %3, 8
  %arrayidx = getelementptr i8, ptr %2, i64 %div
  %4 = load i8, ptr %arrayidx, align 1
  %conv = zext i8 %4 to i32
  %and = and i32 %conv, %not
  %conv1 = trunc i32 %and to i8
  store i8 %conv1, ptr %arrayidx, align 1
  %5 = load i64, ptr %value.addr, align 8
  %6 = load i64, ptr %index.addr, align 8
  %rem2 = urem i64 %6, 8
  %shl3 = shl i64 %5, %rem2
  %7 = load ptr, ptr %refcount_array.addr, align 8
  %8 = load i64, ptr %index.addr, align 8
  %div4 = udiv i64 %8, 8
  %arrayidx5 = getelementptr i8, ptr %7, i64 %div4
  %9 = load i8, ptr %arrayidx5, align 1
  %conv6 = zext i8 %9 to i64
  %or = or i64 %conv6, %shl3
  %conv7 = trunc i64 %or to i8
  store i8 %conv7, ptr %arrayidx5, align 1
  ret void
}